; Function Attrs: nounwind uwtable
define hidden void @_glfwInputWindowMaximize(ptr noundef %0, i32 noundef %1) local_unnamed_addr #0 {
  %3 = getelementptr inbounds nuw i8, ptr %0, i64 768
  %4 = load ptr, ptr %3, align 8, !tbaa !131
  %.not = icmp eq ptr %4, null
  br i1 %.not, label %6, label %5

5:                                                ; preds = %2
  tail call void %4(ptr noundef nonnull %0, i32 noundef %1) #7
  br label %6

6:                                                ; preds = %5, %2
  ret void
}